; Function Attrs: nounwind uwtable
define void @Llb_ManGroupCollect_rec(ptr noundef %0, ptr noundef %1, ptr noundef %2) local_unnamed_addr #3 {
  %4 = getelementptr i8, ptr %0, i64 312
  %.val = load i32, ptr %4, align 8, !tbaa !28
  %5 = getelementptr i8, ptr %1, i64 32
  %.val1931 = load i32, ptr %5, align 8, !tbaa !39
  %.not32 = icmp eq i32 %.val1931, %.val
  br i1 %.not32, label %.loopexit, label %.lr.ph

.lr.ph:                                           ; preds = %3, %tailrecurse
  %6 = phi ptr [ %13, %tailrecurse ], [ %5, %3 ]
  %.tr2833 = phi ptr [ %12, %tailrecurse ], [ %1, %3 ]
  store i32 %.val, ptr %6, align 8, !tbaa !39
  %7 = getelementptr i8, ptr %.tr2833, i64 24
  %.val21 = load i64, ptr %7, align 8
  %8 = and i64 %.val21, 7
  switch i64 %8, label %14 [
    i64 1, label %.loopexit
    i64 3, label %tailrecurse
  ]

tailrecurse:                                      ; preds = %.lr.ph
  %9 = getelementptr i8, ptr %.tr2833, i64 8
  %.val23 = load ptr, ptr %9, align 8, !tbaa !40
  %10 = ptrtoint ptr %.val23 to i64
  %11 = and i64 %10, -2
  %12 = inttoptr i64 %11 to ptr
  %13 = getelementptr i8, ptr %12, i64 32
  %.val19 = load i32, ptr %13, align 8, !tbaa !39
  %.not = icmp eq i32 %.val19, %.val
  br i1 %.not, label %.loopexit, label %.lr.ph

14:                                               ; preds = %.lr.ph
  %15 = getelementptr i8, ptr %.tr2833, i64 8
  %.val24 = load ptr, ptr %15, align 8, !tbaa !40
  %16 = ptrtoint ptr %.val24 to i64
  %17 = and i64 %16, -2
  %18 = inttoptr i64 %17 to ptr
  tail call void @Llb_ManGroupCollect_rec(ptr noundef nonnull %0, ptr noundef %18, ptr noundef %2)
  %19 = getelementptr i8, ptr %.tr2833, i64 16
  %.val25 = load ptr, ptr %19, align 8, !tbaa !41
  %20 = ptrtoint ptr %.val25 to i64
  %21 = and i64 %20, -2
  %22 = inttoptr i64 %21 to ptr
  tail call void @Llb_ManGroupCollect_rec(ptr noundef nonnull %0, ptr noundef %22, ptr noundef %2)
  %23 = getelementptr inbounds nuw i8, ptr %2, i64 4
  %24 = load i32, ptr %23, align 4, !tbaa !12
  %25 = load i32, ptr %2, align 8, !tbaa !14
  %26 = icmp eq i32 %24, %25
  br i1 %26, label %27, label %.Vec_PtrGrow.exit11_crit_edge.i

.Vec_PtrGrow.exit11_crit_edge.i:                  ; preds = %14
  %.phi.trans.insert.i = getelementptr inbounds nuw i8, ptr %2, i64 8
  %.pre.i = load ptr, ptr %.phi.trans.insert.i, align 8, !tbaa !15
  br label %Vec_PtrPush.exit

27:                                               ; preds = %14
  %28 = icmp slt i32 %24, 16
  br i1 %28, label %29, label %37

29:                                               ; preds = %27
  %30 = getelementptr inbounds nuw i8, ptr %2, i64 8
  %31 = load ptr, ptr %30, align 8, !tbaa !15
  %.not9.i.i = icmp eq ptr %31, null
  br i1 %.not9.i.i, label %34, label %32

32:                                               ; preds = %29
  %33 = tail call dereferenceable_or_null(128) ptr @realloc(ptr noundef nonnull %31, i64 noundef 128) #15
  br label %Vec_PtrGrow.exit.i

34:                                               ; preds = %29
  %35 = tail call noalias dereferenceable_or_null(128) ptr @malloc(i64 noundef 128) #14
  br label %Vec_PtrGrow.exit.i

Vec_PtrGrow.exit.i:                               ; preds = %34, %32
  %36 = phi ptr [ %33, %32 ], [ %35, %34 ]
  store ptr %36, ptr %30, align 8, !tbaa !15
  store i32 16, ptr %2, align 8, !tbaa !14
  br label %Vec_PtrPush.exit

37:                                               ; preds = %27
  %38 = shl nuw nsw i32 %24, 1
  %39 = getelementptr inbounds nuw i8, ptr %2, i64 8
  %40 = load ptr, ptr %39, align 8, !tbaa !15
  %.not9.i10.i = icmp eq ptr %40, null
  %41 = zext nneg i32 %38 to i64
  %42 = shl nuw nsw i64 %41, 3
  br i1 %.not9.i10.i, label %45, label %43

43:                                               ; preds = %37
  %44 = tail call ptr @realloc(ptr noundef nonnull %40, i64 noundef %42) #15
  br label %47

45:                                               ; preds = %37
  %46 = tail call noalias ptr @malloc(i64 noundef %42) #14
  br label %47

47:                                               ; preds = %45, %43
  %48 = phi ptr [ %44, %43 ], [ %46, %45 ]
  store ptr %48, ptr %39, align 8, !tbaa !15
  store i32 %38, ptr %2, align 8, !tbaa !14
  br label %Vec_PtrPush.exit

Vec_PtrPush.exit:                                 ; preds = %.Vec_PtrGrow.exit11_crit_edge.i, %Vec_PtrGrow.exit.i, %47
  %49 = phi ptr [ %.pre.i, %.Vec_PtrGrow.exit11_crit_edge.i ], [ %48, %47 ], [ %36, %Vec_PtrGrow.exit.i ]
  %50 = load i32, ptr %23, align 4, !tbaa !12
  %51 = add nsw i32 %50, 1
  store i32 %51, ptr %23, align 4, !tbaa !12
  %52 = sext i32 %50 to i64
  %53 = getelementptr inbounds ptr, ptr %49, i64 %52
  store ptr %.tr2833, ptr %53, align 8, !tbaa !26
  br label %.loopexit

.loopexit:                                        ; preds = %tailrecurse, %.lr.ph, %3, %Vec_PtrPush.exit
  ret void
}